; Function Attrs: mustprogress uwtable
define hidden noundef ptr @_ZN3sat16clause_allocator11copy_clauseERKNS_6clauseE(ptr noundef nonnull align 8 dereferenceable(568) %this, ptr nocapture noundef nonnull readonly align 4 dereferenceable(20) %other) local_unnamed_addr #8 align 2 {
entry:
  %m_size.i = getelementptr inbounds i8, ptr %other, i64 4
  %0 = load i32, ptr %m_size.i, align 4
  %conv.i = zext i32 %0 to i64
  %mul.i = shl nuw nsw i64 %conv.i, 2
  %add.i = add nuw nsw i64 %mul.i, 20
  %call3 = tail call noundef ptr @_ZN13sat_allocator8allocateEm(ptr noundef nonnull align 8 dereferenceable(552) %this, i64 noundef %add.i)
  %m_id_gen = getelementptr inbounds i8, ptr %this, i64 552
  %m_free_ids.i = getelementptr inbounds i8, ptr %this, i64 560
  %1 = load ptr, ptr %m_free_ids.i, align 8
  %cmp.i.i = icmp eq ptr %1, null
  br i1 %cmp.i.i, label %if.then.i, label %_ZNK6vectorIjLb0EjE5emptyEv.exit.i

_ZNK6vectorIjLb0EjE5emptyEv.exit.i:               ; preds = %entry
  %arrayidx.i.i = getelementptr inbounds i8, ptr %1, i64 -4
  %2 = load i32, ptr %arrayidx.i.i, align 4
  %cmp3.i.i = icmp eq i32 %2, 0
  br i1 %cmp3.i.i, label %if.then.i, label %_ZN6vectorIjLb0EjE4backEv.exit.i

if.then.i:                                        ; preds = %_ZNK6vectorIjLb0EjE5emptyEv.exit.i, %entry
  %3 = load i32, ptr %m_id_gen, align 8
  %inc.i = add i32 %3, 1
  store i32 %inc.i, ptr %m_id_gen, align 8
  br label %_ZN6id_gen2mkEv.exit

_ZN6vectorIjLb0EjE4backEv.exit.i:                 ; preds = %_ZNK6vectorIjLb0EjE5emptyEv.exit.i
  %4 = add i32 %2, -1
  %5 = zext i32 %4 to i64
  %arrayidx.i1.i.i = getelementptr inbounds i32, ptr %1, i64 %5
  %6 = load i32, ptr %arrayidx.i1.i.i, align 4
  store i32 %4, ptr %arrayidx.i.i, align 4
  br label %_ZN6id_gen2mkEv.exit

_ZN6id_gen2mkEv.exit:                             ; preds = %if.then.i, %_ZN6vectorIjLb0EjE4backEv.exit.i
  %r.0.i = phi i32 [ %3, %if.then.i ], [ %6, %_ZN6vectorIjLb0EjE4backEv.exit.i ]
  %7 = load i32, ptr %m_size.i, align 4
  %m_lits = getelementptr inbounds i8, ptr %other, i64 20
  %m_learned.i = getelementptr inbounds i8, ptr %other, i64 16
  %bf.load.i = load i32, ptr %m_learned.i, align 4
  %8 = and i32 %bf.load.i, 4
  store i32 %r.0.i, ptr %call3, align 4
  %m_size.i15 = getelementptr inbounds i8, ptr %call3, i64 4
  store i32 %7, ptr %m_size.i15, align 4
  %m_capacity.i = getelementptr inbounds i8, ptr %call3, i64 8
  store i32 %7, ptr %m_capacity.i, align 4
  %m_approx.i = getelementptr inbounds i8, ptr %call3, i64 12
  store i32 0, ptr %m_approx.i, align 4
  %m_removed.i = getelementptr inbounds i8, ptr %call3, i64 16
  %bf.load.i16 = load i32, ptr %m_removed.i, align 4
  %bf.clear3.i = and i32 %bf.load.i16, -1073741823
  %bf.set4.i = or disjoint i32 %bf.clear3.i, %8
  %bf.set22.i = or disjoint i32 %bf.set4.i, 1073725440
  store i32 %bf.set22.i, ptr %m_removed.i, align 4
  %m_lits.i = getelementptr inbounds i8, ptr %call3, i64 20
  %conv23.i = zext i32 %7 to i64
  %mul.i17 = shl nuw nsw i64 %conv23.i, 2
  tail call void @llvm.memcpy.p0.p0.i64(ptr nonnull align 4 %m_lits.i, ptr nonnull align 4 %m_lits, i64 %mul.i17, i1 false)
  %bf.set.i.i = or i32 %bf.set4.i, 1073725441
  store i32 %bf.set.i.i, ptr %m_removed.i, align 4
  %cmp4.not.i.i.i.i = icmp eq i32 %7, 0
  br i1 %cmp4.not.i.i.i.i, label %_ZN3sat6clauseC2EjjPKNS_7literalEb.exit, label %for.body.i.i.i.i

for.body.i.i.i.i:                                 ; preds = %_ZN6id_gen2mkEv.exit, %for.body.i.i.i.i
  %indvars.iv.i.i.i.i = phi i64 [ %indvars.iv.next.i.i.i.i, %for.body.i.i.i.i ], [ 0, %_ZN6id_gen2mkEv.exit ]
  %retval.sroa.0.05.i.i.i.i = phi i32 [ %or.i.i.i.i.i, %for.body.i.i.i.i ], [ 0, %_ZN6id_gen2mkEv.exit ]
  %arrayidx.i.i.i.i = getelementptr inbounds %"class.sat::literal", ptr %m_lits.i, i64 %indvars.iv.i.i.i.i
  %9 = load i32, ptr %arrayidx.i.i.i.i, align 4
  %shr.i.i.i.i.i = lshr i32 %9, 1
  %and.i.i.i.i.i.i.i = and i32 %shr.i.i.i.i.i, 31
  %shl.i.i.i.i.i.i.i = shl nuw i32 1, %and.i.i.i.i.i.i.i
  %or.i.i.i.i.i = or i32 %shl.i.i.i.i.i.i.i, %retval.sroa.0.05.i.i.i.i
  %indvars.iv.next.i.i.i.i = add nuw nsw i64 %indvars.iv.i.i.i.i, 1
  %exitcond.not.i.i.i.i = icmp eq i64 %indvars.iv.next.i.i.i.i, %conv23.i
  br i1 %exitcond.not.i.i.i.i, label %_ZN3sat6clauseC2EjjPKNS_7literalEb.exit, label %for.body.i.i.i.i, !llvm.loop !4

_ZN3sat6clauseC2EjjPKNS_7literalEb.exit:          ; preds = %for.body.i.i.i.i, %_ZN6id_gen2mkEv.exit
  %retval.sroa.0.0.lcssa.i.i.i.i = phi i32 [ 0, %_ZN6id_gen2mkEv.exit ], [ %or.i.i.i.i.i, %for.body.i.i.i.i ]
  store i32 %retval.sroa.0.0.lcssa.i.i.i.i, ptr %m_approx.i, align 4
  %bf.load.i18 = load i32, ptr %m_learned.i, align 4
  %10 = and i32 %bf.load.i18, 32
  %bf.set = or disjoint i32 %10, %bf.set.i.i
  store i32 %bf.set, ptr %m_removed.i, align 4
  %bf.load.i20 = load i32, ptr %m_learned.i, align 4
  %bf.clear.i = and i32 %bf.load.i20, 4177920
  %bf.clear12 = and i32 %bf.set, -4194267
  %bf.set13 = or disjoint i32 %bf.clear12, %bf.clear.i
  store i32 %bf.set13, ptr %m_removed.i, align 4
  %bf.load.i21 = load i32, ptr %m_learned.i, align 4
  %bf.clear.i23 = and i32 %bf.load.i21, 1069547520
  %bf.clear18 = and i32 %bf.set13, -1069563867
  %bf.set19 = or disjoint i32 %bf.clear18, %bf.clear.i23
  store i32 %bf.set19, ptr %m_removed.i, align 4
  %bf.load.i24 = load i32, ptr %m_learned.i, align 4
  %11 = and i32 %bf.load.i24, 16
  %bf.set26 = or disjoint i32 %11, %bf.set19
  store i32 %bf.set26, ptr %m_removed.i, align 4
  %m_approx.i26 = getelementptr inbounds i8, ptr %other, i64 12
  %retval.sroa.0.0.copyload.i = load i32, ptr %m_approx.i26, align 4
  store i32 %retval.sroa.0.0.copyload.i, ptr %m_approx.i, align 4
  ret ptr %call3
}